(dp1
S'DLC'
p2
S'#2918d9'
p3
sS'LEC'
p4
S'#280cd9'
p5
sS'NaviBox'
p6
S'#1303d7'
p7
sS'AreaInfo'
p8
(lp9
S'#0000d9'
p10
aS'white'
p11
asS'ZInfo'
p12
(lp13
S'blue'
p14
ag11
asS'AL1C'
p15
g14
sS'RoughInfo'
p16
(lp17
g14
ag11
asS'AL2C'
p18
g14
s.