(dp1
S'RefAmplitude'
p2
F0.05000000074505806
sS'IntgTimeConst'
p3
S'10ms'
p4
sS'RefPhase'
p5
F0
sS'RefFrequency'
p6
F2499.99755859375
sS'RefFrequencyUnit'
p7
S'Hz'
p8
sS'RefAmplitudeUnit'
p9
S'mV'
p10
sS'RefPhaseUnit'
p11
S'deg'
p12
sS'PreAmpGain'
p13
S'1'
sS'PreAmpAC_CouplingState'
p14
S'Enabled'
p15
sS'PostAmpGain'
p16
S'1'
s.