(dp0
S'TipMotionSpeed'
p1
F2.5
sS'XCalibration'
p2
F16.600000000000001
sS'RunDelay'
p3
I50
sS'Color'
p4
S'RGB'
p5
sS'YCalibration'
p6
F16.600000000000001
sS'lutfile'
p7
S'/usr/stm/SiM4.2.0/modules/scanner/lut/yellow.lut'
p8
sS'HVAGain'
p9
F10.0
sS'AutoWalkDelay'
p10
I4
sS'ZPolarity'
p11
S'Positive'
p12
sS'ZCalibration'
p13
F4.0
s.